target datalayout = "e-m:e-p270:32:32-p271:32:32-p272:64:64-i64:64-i128:128-f80:128-n8:16:32:64-S128"
target triple = "x86_64-pc-linux-gnu"

%struct.lua_TValue = type { %union.Value, i32 }
%union.Value = type { ptr }
%struct.lua_State = type { ptr, i8, i8, i8, ptr, ptr, ptr, ptr, ptr, ptr, ptr, ptr, ptr, i32, i32, i16, i16, i8, i8, i32, i32, ptr, %struct.lua_TValue, %struct.lua_TValue, ptr, ptr, ptr, i64 }
%struct.CallInfo = type { ptr, ptr, ptr, ptr, i32, i32 }
%struct.global_State = type { %struct.stringtable, ptr, ptr, i8, i8, i32, ptr, ptr, ptr, ptr, ptr, ptr, %struct.Mbuffer, i64, i64, i64, i64, i32, i32, ptr, %struct.lua_TValue, ptr, %struct.UpVal, [9 x ptr], [17 x ptr] }
%struct.stringtable = type { ptr, i32, i32 }
%struct.Mbuffer = type { ptr, i64, i64 }
%struct.UpVal = type { ptr, i8, i8, ptr, %union.anon }
%union.anon = type { %struct.lua_TValue }
%struct.CClosure = type { ptr, i8, i8, i8, i8, ptr, ptr, ptr, [1 x %struct.lua_TValue] }
%struct.GCheader = type { ptr, i8, i8 }

@.str = private unnamed_addr constant [23 x i8] c"no calling environment\00", align 1
@luaO_nilobject_ = external hidden constant %struct.lua_TValue, align 8

; Function Attrs: nounwind uwtable
define internal ptr @index2adr(ptr noundef %0, i32 noundef %1) #0 {
  %3 = alloca ptr, align 8
  %4 = alloca ptr, align 8
  %5 = alloca i32, align 4
  %6 = alloca ptr, align 8
  %7 = alloca i32, align 4
  %8 = alloca ptr, align 8
  %9 = alloca ptr, align 8
  %10 = alloca ptr, align 8
  store ptr %0, ptr %4, align 8, !tbaa !4
  store i32 %1, ptr %5, align 4, !tbaa !25
  %11 = load i32, ptr %5, align 4, !tbaa !25
  %12 = icmp sgt i32 %11, 0
  br i1 %12, label %13, label %30

13:                                               ; preds = %2
  call void @llvm.lifetime.start.p0(i64 8, ptr %6) #6
  %14 = load ptr, ptr %4, align 8, !tbaa !4
  %15 = getelementptr inbounds nuw %struct.lua_State, ptr %14, i32 0, i32 5
  %16 = load ptr, ptr %15, align 8, !tbaa !26
  %17 = load i32, ptr %5, align 4, !tbaa !25
  %18 = sub nsw i32 %17, 1
  %19 = sext i32 %18 to i64
  %20 = getelementptr inbounds %struct.lua_TValue, ptr %16, i64 %19
  store ptr %20, ptr %6, align 8, !tbaa !9
  %21 = load ptr, ptr %6, align 8, !tbaa !9
  %22 = load ptr, ptr %4, align 8, !tbaa !4
  %23 = getelementptr inbounds nuw %struct.lua_State, ptr %22, i32 0, i32 4
  %24 = load ptr, ptr %23, align 8, !tbaa !11
  %25 = icmp uge ptr %21, %24
  br i1 %25, label %26, label %27

26:                                               ; preds = %13
  store ptr @luaO_nilobject_, ptr %3, align 8
  store i32 1, ptr %7, align 4
  br label %29

27:                                               ; preds = %13
  %28 = load ptr, ptr %6, align 8, !tbaa !9
  store ptr %28, ptr %3, align 8
  store i32 1, ptr %7, align 4
  br label %29

29:                                               ; preds = %27, %26
  call void @llvm.lifetime.end.p0(i64 8, ptr %6) #6
  br label %95

30:                                               ; preds = %2
  %31 = load i32, ptr %5, align 4, !tbaa !25
  %32 = icmp sgt i32 %31, -10000
  br i1 %32, label %33, label %40

33:                                               ; preds = %30
  %34 = load ptr, ptr %4, align 8, !tbaa !4
  %35 = getelementptr inbounds nuw %struct.lua_State, ptr %34, i32 0, i32 4
  %36 = load ptr, ptr %35, align 8, !tbaa !11
  %37 = load i32, ptr %5, align 4, !tbaa !25
  %38 = sext i32 %37 to i64
  %39 = getelementptr inbounds %struct.lua_TValue, ptr %36, i64 %38
  store ptr %39, ptr %3, align 8
  br label %95

40:                                               ; preds = %30
  %41 = load i32, ptr %5, align 4, !tbaa !25
  switch i32 %41, label %69 [
    i32 -10000, label %42
    i32 -10001, label %47
    i32 -10002, label %66
  ]

42:                                               ; preds = %40
  %43 = load ptr, ptr %4, align 8, !tbaa !4
  %44 = getelementptr inbounds nuw %struct.lua_State, ptr %43, i32 0, i32 6
  %45 = load ptr, ptr %44, align 8, !tbaa !35
  %46 = getelementptr inbounds nuw %struct.global_State, ptr %45, i32 0, i32 20
  store ptr %46, ptr %3, align 8
  br label %95

47:                                               ; preds = %40
  call void @llvm.lifetime.start.p0(i64 8, ptr %8) #6
  %48 = load ptr, ptr %4, align 8, !tbaa !4
  %49 = getelementptr inbounds nuw %struct.lua_State, ptr %48, i32 0, i32 7
  %50 = load ptr, ptr %49, align 8, !tbaa !28
  %51 = getelementptr inbounds nuw %struct.CallInfo, ptr %50, i32 0, i32 1
  %52 = load ptr, ptr %51, align 8, !tbaa !47
  %53 = getelementptr inbounds nuw %struct.lua_TValue, ptr %52, i32 0, i32 0
  %54 = load ptr, ptr %53, align 8, !tbaa !23
  store ptr %54, ptr %8, align 8, !tbaa !48
  call void @llvm.lifetime.start.p0(i64 8, ptr %9) #6
  %55 = load ptr, ptr %4, align 8, !tbaa !4
  %56 = getelementptr inbounds nuw %struct.lua_State, ptr %55, i32 0, i32 23
  store ptr %56, ptr %9, align 8, !tbaa !9
  %57 = load ptr, ptr %8, align 8, !tbaa !48
  %58 = getelementptr inbounds nuw %struct.CClosure, ptr %57, i32 0, i32 6
  %59 = load ptr, ptr %58, align 8, !tbaa !23
  %60 = load ptr, ptr %9, align 8, !tbaa !9
  %61 = getelementptr inbounds nuw %struct.lua_TValue, ptr %60, i32 0, i32 0
  store ptr %59, ptr %61, align 8, !tbaa !23
  %62 = load ptr, ptr %9, align 8, !tbaa !9
  %63 = getelementptr inbounds nuw %struct.lua_TValue, ptr %62, i32 0, i32 1
  store i32 5, ptr %63, align 8, !tbaa !24
  call void @llvm.lifetime.end.p0(i64 8, ptr %9) #6
  %64 = load ptr, ptr %4, align 8, !tbaa !4
  %65 = getelementptr inbounds nuw %struct.lua_State, ptr %64, i32 0, i32 23
  store ptr %65, ptr %3, align 8
  store i32 1, ptr %7, align 4
  call void @llvm.lifetime.end.p0(i64 8, ptr %8) #6
  br label %95

66:                                               ; preds = %40
  %67 = load ptr, ptr %4, align 8, !tbaa !4
  %68 = getelementptr inbounds nuw %struct.lua_State, ptr %67, i32 0, i32 22
  store ptr %68, ptr %3, align 8
  br label %95

69:                                               ; preds = %40
  call void @llvm.lifetime.start.p0(i64 8, ptr %10) #6
  %70 = load ptr, ptr %4, align 8, !tbaa !4
  %71 = getelementptr inbounds nuw %struct.lua_State, ptr %70, i32 0, i32 7
  %72 = load ptr, ptr %71, align 8, !tbaa !28
  %73 = getelementptr inbounds nuw %struct.CallInfo, ptr %72, i32 0, i32 1
  %74 = load ptr, ptr %73, align 8, !tbaa !47
  %75 = getelementptr inbounds nuw %struct.lua_TValue, ptr %74, i32 0, i32 0
  %76 = load ptr, ptr %75, align 8, !tbaa !23
  store ptr %76, ptr %10, align 8, !tbaa !48
  %77 = load i32, ptr %5, align 4, !tbaa !25
  %78 = sub nsw i32 -10002, %77
  store i32 %78, ptr %5, align 4, !tbaa !25
  %79 = load i32, ptr %5, align 4, !tbaa !25
  %80 = load ptr, ptr %10, align 8, !tbaa !48
  %81 = getelementptr inbounds nuw %struct.CClosure, ptr %80, i32 0, i32 4
  %82 = load i8, ptr %81, align 1, !tbaa !23
  %83 = zext i8 %82 to i32
  %84 = icmp sle i32 %79, %83
  br i1 %84, label %85, label %92

85:                                               ; preds = %69
  %86 = load ptr, ptr %10, align 8, !tbaa !48
  %87 = getelementptr inbounds nuw %struct.CClosure, ptr %86, i32 0, i32 8
  %88 = load i32, ptr %5, align 4, !tbaa !25
  %89 = sub nsw i32 %88, 1
  %90 = sext i32 %89 to i64
  %91 = getelementptr inbounds [1 x %struct.lua_TValue], ptr %87, i64 0, i64 %90
  br label %93

92:                                               ; preds = %69
  br label %93

93:                                               ; preds = %92, %85
  %94 = phi ptr [ %91, %85 ], [ @luaO_nilobject_, %92 ]
  store ptr %94, ptr %3, align 8
  store i32 1, ptr %7, align 4
  call void @llvm.lifetime.end.p0(i64 8, ptr %10) #6
  br label %95

95:                                               ; preds = %93, %66, %47, %42, %33, %29
  %96 = load ptr, ptr %3, align 8
  ret ptr %96
}

; Function Attrs: nounwind uwtable
define dso_local void @lua_replace(ptr noundef %0, i32 noundef %1) #0 {
  %3 = alloca ptr, align 8
  %4 = alloca i32, align 4
  %5 = alloca ptr, align 8
  %6 = alloca ptr, align 8
  %7 = alloca ptr, align 8
  %8 = alloca ptr, align 8
  store ptr %0, ptr %3, align 8, !tbaa !4
  store i32 %1, ptr %4, align 4, !tbaa !25
  call void @llvm.lifetime.start.p0(i64 8, ptr %5) #6
  %9 = load i32, ptr %4, align 4, !tbaa !25
  %10 = icmp eq i32 %9, -10001
  br i1 %10, label %11, label %21

11:                                               ; preds = %2
  %12 = load ptr, ptr %3, align 8, !tbaa !4
  %13 = getelementptr inbounds nuw %struct.lua_State, ptr %12, i32 0, i32 7
  %14 = load ptr, ptr %13, align 8, !tbaa !28
  %15 = load ptr, ptr %3, align 8, !tbaa !4
  %16 = getelementptr inbounds nuw %struct.lua_State, ptr %15, i32 0, i32 12
  %17 = load ptr, ptr %16, align 8, !tbaa !51
  %18 = icmp eq ptr %14, %17
  br i1 %18, label %19, label %21

19:                                               ; preds = %11
  %20 = load ptr, ptr %3, align 8, !tbaa !4
  call void (ptr, ptr, ...) @luaG_runerror(ptr noundef %20, ptr noundef @.str)
  br label %21

21:                                               ; preds = %19, %11, %2
  %22 = load ptr, ptr %3, align 8, !tbaa !4
  %23 = load i32, ptr %4, align 4, !tbaa !25
  %24 = call ptr @index2adr(ptr noundef %22, i32 noundef %23)
  store ptr %24, ptr %5, align 8, !tbaa !9
  %25 = load i32, ptr %4, align 4, !tbaa !25
  %26 = icmp eq i32 %25, -10001
  br i1 %26, label %27, label %79

27:                                               ; preds = %21
  call void @llvm.lifetime.start.p0(i64 8, ptr %6) #6
  %28 = load ptr, ptr %3, align 8, !tbaa !4
  %29 = getelementptr inbounds nuw %struct.lua_State, ptr %28, i32 0, i32 7
  %30 = load ptr, ptr %29, align 8, !tbaa !28
  %31 = getelementptr inbounds nuw %struct.CallInfo, ptr %30, i32 0, i32 1
  %32 = load ptr, ptr %31, align 8, !tbaa !47
  %33 = getelementptr inbounds nuw %struct.lua_TValue, ptr %32, i32 0, i32 0
  %34 = load ptr, ptr %33, align 8, !tbaa !23
  store ptr %34, ptr %6, align 8, !tbaa !48
  %35 = load ptr, ptr %3, align 8, !tbaa !4
  %36 = getelementptr inbounds nuw %struct.lua_State, ptr %35, i32 0, i32 4
  %37 = load ptr, ptr %36, align 8, !tbaa !11
  %38 = getelementptr inbounds %struct.lua_TValue, ptr %37, i64 -1
  %39 = getelementptr inbounds nuw %struct.lua_TValue, ptr %38, i32 0, i32 0
  %40 = load ptr, ptr %39, align 8, !tbaa !23
  %41 = load ptr, ptr %6, align 8, !tbaa !48
  %42 = getelementptr inbounds nuw %struct.CClosure, ptr %41, i32 0, i32 6
  store ptr %40, ptr %42, align 8, !tbaa !23
  %43 = load ptr, ptr %3, align 8, !tbaa !4
  %44 = getelementptr inbounds nuw %struct.lua_State, ptr %43, i32 0, i32 4
  %45 = load ptr, ptr %44, align 8, !tbaa !11
  %46 = getelementptr inbounds %struct.lua_TValue, ptr %45, i64 -1
  %47 = getelementptr inbounds nuw %struct.lua_TValue, ptr %46, i32 0, i32 1
  %48 = load i32, ptr %47, align 8, !tbaa !24
  %49 = icmp sge i32 %48, 4
  br i1 %49, label %50, label %78

50:                                               ; preds = %27
  %51 = load ptr, ptr %3, align 8, !tbaa !4
  %52 = getelementptr inbounds nuw %struct.lua_State, ptr %51, i32 0, i32 4
  %53 = load ptr, ptr %52, align 8, !tbaa !11
  %54 = getelementptr inbounds %struct.lua_TValue, ptr %53, i64 -1
  %55 = getelementptr inbounds nuw %struct.lua_TValue, ptr %54, i32 0, i32 0
  %56 = load ptr, ptr %55, align 8, !tbaa !23
  %57 = getelementptr inbounds nuw %struct.GCheader, ptr %56, i32 0, i32 2
  %58 = load i8, ptr %57, align 1, !tbaa !23
  %59 = zext i8 %58 to i32
  %60 = and i32 %59, 3
  %61 = icmp ne i32 %60, 0
  br i1 %61, label %62, label %78

62:                                               ; preds = %50
  %63 = load ptr, ptr %6, align 8, !tbaa !48
  %64 = getelementptr inbounds nuw %struct.GCheader, ptr %63, i32 0, i32 2
  %65 = load i8, ptr %64, align 1, !tbaa !23
  %66 = zext i8 %65 to i32
  %67 = and i32 %66, 4
  %68 = icmp ne i32 %67, 0
  br i1 %68, label %69, label %78

69:                                               ; preds = %62
  %70 = load ptr, ptr %3, align 8, !tbaa !4
  %71 = load ptr, ptr %6, align 8, !tbaa !48
  %72 = load ptr, ptr %3, align 8, !tbaa !4
  %73 = getelementptr inbounds nuw %struct.lua_State, ptr %72, i32 0, i32 4
  %74 = load ptr, ptr %73, align 8, !tbaa !11
  %75 = getelementptr inbounds %struct.lua_TValue, ptr %74, i64 -1
  %76 = getelementptr inbounds nuw %struct.lua_TValue, ptr %75, i32 0, i32 0
  %77 = load ptr, ptr %76, align 8, !tbaa !23
  call void @luaC_barrierf(ptr noundef %70, ptr noundef %71, ptr noundef %77)
  br label %78

78:                                               ; preds = %69, %62, %50, %27
  call void @llvm.lifetime.end.p0(i64 8, ptr %6) #6
  br label %146

79:                                               ; preds = %21
  call void @llvm.lifetime.start.p0(i64 8, ptr %7) #6
  %80 = load ptr, ptr %3, align 8, !tbaa !4
  %81 = getelementptr inbounds nuw %struct.lua_State, ptr %80, i32 0, i32 4
  %82 = load ptr, ptr %81, align 8, !tbaa !11
  %83 = getelementptr inbounds %struct.lua_TValue, ptr %82, i64 -1
  store ptr %83, ptr %7, align 8, !tbaa !9
  call void @llvm.lifetime.start.p0(i64 8, ptr %8) #6
  %84 = load ptr, ptr %5, align 8, !tbaa !9
  store ptr %84, ptr %8, align 8, !tbaa !9
  %85 = load ptr, ptr %8, align 8, !tbaa !9
  %86 = getelementptr inbounds nuw %struct.lua_TValue, ptr %85, i32 0, i32 0
  %87 = load ptr, ptr %7, align 8, !tbaa !9
  %88 = getelementptr inbounds nuw %struct.lua_TValue, ptr %87, i32 0, i32 0
  call void @llvm.memcpy.p0.p0.i64(ptr align 8 %86, ptr align 8 %88, i64 8, i1 false), !tbaa.struct !22
  %89 = load ptr, ptr %7, align 8, !tbaa !9
  %90 = getelementptr inbounds nuw %struct.lua_TValue, ptr %89, i32 0, i32 1
  %91 = load i32, ptr %90, align 8, !tbaa !24
  %92 = load ptr, ptr %8, align 8, !tbaa !9
  %93 = getelementptr inbounds nuw %struct.lua_TValue, ptr %92, i32 0, i32 1
  store i32 %91, ptr %93, align 8, !tbaa !24
  call void @llvm.lifetime.end.p0(i64 8, ptr %8) #6
  call void @llvm.lifetime.end.p0(i64 8, ptr %7) #6
  %94 = load i32, ptr %4, align 4, !tbaa !25
  %95 = icmp slt i32 %94, -10002
  br i1 %95, label %96, label %145

96:                                               ; preds = %79
  %97 = load ptr, ptr %3, align 8, !tbaa !4
  %98 = getelementptr inbounds nuw %struct.lua_State, ptr %97, i32 0, i32 4
  %99 = load ptr, ptr %98, align 8, !tbaa !11
  %100 = getelementptr inbounds %struct.lua_TValue, ptr %99, i64 -1
  %101 = getelementptr inbounds nuw %struct.lua_TValue, ptr %100, i32 0, i32 1
  %102 = load i32, ptr %101, align 8, !tbaa !24
  %103 = icmp sge i32 %102, 4
  br i1 %103, label %104, label %144

104:                                              ; preds = %96
  %105 = load ptr, ptr %3, align 8, !tbaa !4
  %106 = getelementptr inbounds nuw %struct.lua_State, ptr %105, i32 0, i32 4
  %107 = load ptr, ptr %106, align 8, !tbaa !11
  %108 = getelementptr inbounds %struct.lua_TValue, ptr %107, i64 -1
  %109 = getelementptr inbounds nuw %struct.lua_TValue, ptr %108, i32 0, i32 0
  %110 = load ptr, ptr %109, align 8, !tbaa !23
  %111 = getelementptr inbounds nuw %struct.GCheader, ptr %110, i32 0, i32 2
  %112 = load i8, ptr %111, align 1, !tbaa !23
  %113 = zext i8 %112 to i32
  %114 = and i32 %113, 3
  %115 = icmp ne i32 %114, 0
  br i1 %115, label %116, label %144

116:                                              ; preds = %104
  %117 = load ptr, ptr %3, align 8, !tbaa !4
  %118 = getelementptr inbounds nuw %struct.lua_State, ptr %117, i32 0, i32 7
  %119 = load ptr, ptr %118, align 8, !tbaa !28
  %120 = getelementptr inbounds nuw %struct.CallInfo, ptr %119, i32 0, i32 1
  %121 = load ptr, ptr %120, align 8, !tbaa !47
  %122 = getelementptr inbounds nuw %struct.lua_TValue, ptr %121, i32 0, i32 0
  %123 = load ptr, ptr %122, align 8, !tbaa !23
  %124 = getelementptr inbounds nuw %struct.GCheader, ptr %123, i32 0, i32 2
  %125 = load i8, ptr %124, align 1, !tbaa !23
  %126 = zext i8 %125 to i32
  %127 = and i32 %126, 4
  %128 = icmp ne i32 %127, 0
  br i1 %128, label %129, label %144

129:                                              ; preds = %116
  %130 = load ptr, ptr %3, align 8, !tbaa !4
  %131 = load ptr, ptr %3, align 8, !tbaa !4
  %132 = getelementptr inbounds nuw %struct.lua_State, ptr %131, i32 0, i32 7
  %133 = load ptr, ptr %132, align 8, !tbaa !28
  %134 = getelementptr inbounds nuw %struct.CallInfo, ptr %133, i32 0, i32 1
  %135 = load ptr, ptr %134, align 8, !tbaa !47
  %136 = getelementptr inbounds nuw %struct.lua_TValue, ptr %135, i32 0, i32 0
  %137 = load ptr, ptr %136, align 8, !tbaa !23
  %138 = load ptr, ptr %3, align 8, !tbaa !4
  %139 = getelementptr inbounds nuw %struct.lua_State, ptr %138, i32 0, i32 4
  %140 = load ptr, ptr %139, align 8, !tbaa !11
  %141 = getelementptr inbounds %struct.lua_TValue, ptr %140, i64 -1
  %142 = getelementptr inbounds nuw %struct.lua_TValue, ptr %141, i32 0, i32 0
  %143 = load ptr, ptr %142, align 8, !tbaa !23
  call void @luaC_barrierf(ptr noundef %130, ptr noundef %137, ptr noundef %143)
  br label %144

144:                                              ; preds = %129, %116, %104, %96
  br label %145

145:                                              ; preds = %144, %79
  br label %146

146:                                              ; preds = %145, %78
  %147 = load ptr, ptr %3, align 8, !tbaa !4
  %148 = getelementptr inbounds nuw %struct.lua_State, ptr %147, i32 0, i32 4
  %149 = load ptr, ptr %148, align 8, !tbaa !11
  %150 = getelementptr inbounds %struct.lua_TValue, ptr %149, i32 -1
  store ptr %150, ptr %148, align 8, !tbaa !11
  call void @llvm.lifetime.end.p0(i64 8, ptr %5) #6
  ret void
}