; Function Attrs: nounwind uwtable
define dso_local void @lua_replace(ptr noundef %0, i32 noundef %1) local_unnamed_addr #2 {
  %3 = icmp eq i32 %1, -10001
  br i1 %3, label %4, label %11

4:                                                ; preds = %2
  %5 = getelementptr inbounds nuw i8, ptr %0, i64 40
  %6 = load ptr, ptr %5, align 8, !tbaa !23
  %7 = getelementptr inbounds nuw i8, ptr %0, i64 80
  %8 = load ptr, ptr %7, align 8, !tbaa !44
  %9 = icmp eq ptr %6, %8
  br i1 %9, label %10, label %.thread33

10:                                               ; preds = %4
  tail call void (ptr, ptr, ...) @luaG_runerror(ptr noundef nonnull %0, ptr noundef nonnull @.str) #14
  br label %.thread33

11:                                               ; preds = %2
  %12 = icmp sgt i32 %1, 0
  br i1 %12, label %13, label %21

13:                                               ; preds = %11
  %14 = getelementptr inbounds nuw i8, ptr %0, i64 24
  %15 = load ptr, ptr %14, align 8, !tbaa !21
  %16 = zext nneg i32 %1 to i64
  %17 = getelementptr %struct.lua_TValue, ptr %15, i64 %16
  %18 = getelementptr i8, ptr %17, i64 -16
  %19 = getelementptr inbounds nuw i8, ptr %0, i64 16
  %20 = load ptr, ptr %19, align 8, !tbaa !4
  %.not28.i = icmp ult ptr %18, %20
  %.luaO_nilobject_.i = select i1 %.not28.i, ptr %18, ptr @luaO_nilobject_
  br label %.thread37

21:                                               ; preds = %11
  %22 = icmp sgt i32 %1, -10000
  br i1 %22, label %23, label %28

23:                                               ; preds = %21
  %24 = getelementptr inbounds nuw i8, ptr %0, i64 16
  %25 = load ptr, ptr %24, align 8, !tbaa !4
  %26 = sext i32 %1 to i64
  %27 = getelementptr inbounds %struct.lua_TValue, ptr %25, i64 %26
  br label %.thread37

28:                                               ; preds = %21
  switch i32 %1, label %73 [
    i32 -10000, label %29
    i32 -10001, label %.thread33
    i32 -10002, label %33
  ]

29:                                               ; preds = %28
  %30 = getelementptr inbounds nuw i8, ptr %0, i64 32
  %31 = load ptr, ptr %30, align 8, !tbaa !29
  %32 = getelementptr inbounds nuw i8, ptr %31, i64 160
  br label %.thread37

33:                                               ; preds = %28
  %34 = getelementptr inbounds nuw i8, ptr %0, i64 120
  br label %.thread37

.thread33:                                        ; preds = %4, %10, %28
  %35 = getelementptr inbounds nuw i8, ptr %0, i64 40
  %36 = load ptr, ptr %35, align 8, !tbaa !23
  %37 = getelementptr inbounds nuw i8, ptr %36, i64 8
  %38 = load ptr, ptr %37, align 8, !tbaa !41
  %39 = load ptr, ptr %38, align 8, !tbaa !19
  %40 = getelementptr inbounds nuw i8, ptr %0, i64 136
  %41 = getelementptr inbounds nuw i8, ptr %39, i64 24
  %42 = load ptr, ptr %41, align 8, !tbaa !19
  store ptr %42, ptr %40, align 8, !tbaa !19
  %43 = getelementptr inbounds nuw i8, ptr %0, i64 144
  store i32 5, ptr %43, align 8, !tbaa !20
  %44 = load ptr, ptr %37, align 8, !tbaa !41
  %45 = load ptr, ptr %44, align 8, !tbaa !19
  %46 = getelementptr inbounds nuw i8, ptr %0, i64 16
  %47 = load ptr, ptr %46, align 8, !tbaa !4
  %48 = getelementptr inbounds i8, ptr %47, i64 -16
  %49 = load ptr, ptr %48, align 8, !tbaa !19
  %50 = getelementptr inbounds nuw i8, ptr %45, i64 24
  store ptr %49, ptr %50, align 8, !tbaa !19
  %51 = load ptr, ptr %46, align 8, !tbaa !4
  %52 = getelementptr inbounds i8, ptr %51, i64 -8
  %53 = load i32, ptr %52, align 8, !tbaa !20
  %54 = icmp sgt i32 %53, 3
  br i1 %54, label %55, label %114

55:                                               ; preds = %.thread33
  %56 = getelementptr inbounds i8, ptr %51, i64 -16
  %57 = load ptr, ptr %56, align 8, !tbaa !19
  %58 = getelementptr inbounds nuw i8, ptr %57, i64 9
  %59 = load i8, ptr %58, align 1, !tbaa !19
  %60 = and i8 %59, 3
  %.not30 = icmp eq i8 %60, 0
  br i1 %.not30, label %114, label %61

61:                                               ; preds = %55
  %62 = getelementptr inbounds nuw i8, ptr %45, i64 9
  %63 = load i8, ptr %62, align 1, !tbaa !19
  %64 = and i8 %63, 4
  %.not31 = icmp eq i8 %64, 0
  br i1 %.not31, label %114, label %65

65:                                               ; preds = %61
  tail call void @luaC_barrierf(ptr noundef nonnull %0, ptr noundef nonnull %45, ptr noundef nonnull %57) #14
  br label %114

.thread37:                                        ; preds = %13, %23, %29, %33
  %.1.i.ph.ph = phi ptr [ %.luaO_nilobject_.i, %13 ], [ %27, %23 ], [ %34, %33 ], [ %32, %29 ]
  %66 = getelementptr inbounds nuw i8, ptr %0, i64 16
  %67 = load ptr, ptr %66, align 8, !tbaa !4
  %68 = getelementptr inbounds i8, ptr %67, i64 -16
  %69 = load i64, ptr %68, align 8, !tbaa !19
  store i64 %69, ptr %.1.i.ph.ph, align 8, !tbaa !19
  %70 = getelementptr inbounds i8, ptr %67, i64 -8
  %71 = load i32, ptr %70, align 8, !tbaa !20
  %72 = getelementptr inbounds nuw i8, ptr %.1.i.ph.ph, i64 8
  store i32 %71, ptr %72, align 8, !tbaa !20
  br label %114

73:                                               ; preds = %28
  %74 = getelementptr inbounds nuw i8, ptr %0, i64 40
  %75 = load ptr, ptr %74, align 8, !tbaa !23
  %76 = getelementptr inbounds nuw i8, ptr %75, i64 8
  %77 = load ptr, ptr %76, align 8, !tbaa !41
  %78 = load ptr, ptr %77, align 8, !tbaa !19
  %79 = sub nuw nsw i32 -10002, %1
  %80 = getelementptr inbounds nuw i8, ptr %78, i64 11
  %81 = load i8, ptr %80, align 1, !tbaa !19
  %82 = zext i8 %81 to i32
  %.not.i = icmp samesign ugt i32 %79, %82
  %83 = getelementptr inbounds nuw i8, ptr %78, i64 40
  %84 = sub nuw nsw i32 -10003, %1
  %85 = zext nneg i32 %84 to i64
  %86 = getelementptr inbounds nuw [1 x %struct.lua_TValue], ptr %83, i64 0, i64 %85
  %87 = select i1 %.not.i, ptr @luaO_nilobject_, ptr %86
  %88 = getelementptr inbounds nuw i8, ptr %0, i64 16
  %89 = load ptr, ptr %88, align 8, !tbaa !4
  %90 = getelementptr inbounds i8, ptr %89, i64 -16
  %91 = load i64, ptr %90, align 8, !tbaa !19
  store i64 %91, ptr %87, align 8, !tbaa !19
  %92 = getelementptr inbounds i8, ptr %89, i64 -8
  %93 = load i32, ptr %92, align 8, !tbaa !20
  %94 = getelementptr inbounds nuw i8, ptr %87, i64 8
  store i32 %93, ptr %94, align 8, !tbaa !20
  %95 = load ptr, ptr %88, align 8, !tbaa !4
  %96 = getelementptr inbounds i8, ptr %95, i64 -8
  %97 = load i32, ptr %96, align 8, !tbaa !20
  %98 = icmp sgt i32 %97, 3
  br i1 %98, label %99, label %114

99:                                               ; preds = %73
  %100 = getelementptr inbounds i8, ptr %95, i64 -16
  %101 = load ptr, ptr %100, align 8, !tbaa !19
  %102 = getelementptr inbounds nuw i8, ptr %101, i64 9
  %103 = load i8, ptr %102, align 1, !tbaa !19
  %104 = and i8 %103, 3
  %.not = icmp eq i8 %104, 0
  br i1 %.not, label %114, label %105

105:                                              ; preds = %99
  %106 = load ptr, ptr %74, align 8, !tbaa !23
  %107 = getelementptr inbounds nuw i8, ptr %106, i64 8
  %108 = load ptr, ptr %107, align 8, !tbaa !41
  %109 = load ptr, ptr %108, align 8, !tbaa !19
  %110 = getelementptr inbounds nuw i8, ptr %109, i64 9
  %111 = load i8, ptr %110, align 1, !tbaa !19
  %112 = and i8 %111, 4
  %.not29 = icmp eq i8 %112, 0
  br i1 %.not29, label %114, label %113

113:                                              ; preds = %105
  tail call void @luaC_barrierf(ptr noundef nonnull %0, ptr noundef nonnull %109, ptr noundef nonnull %101) #14
  br label %114

114:                                              ; preds = %.thread37, %.thread33, %55, %61, %65, %113, %105, %99, %73
  %115 = getelementptr inbounds nuw i8, ptr %0, i64 16
  %116 = load ptr, ptr %115, align 8, !tbaa !4
  %117 = getelementptr inbounds i8, ptr %116, i64 -16
  store ptr %117, ptr %115, align 8, !tbaa !4
  ret void
}